
output/vgatest.o:     file format elf32-littleriscv


Disassembly of section .text:

00000000 <_start>:
   0:	00002197          	auipc	gp,0x2
   4:	00018193          	mv	gp,gp
   8:	00018113          	mv	sp,gp
   c:	00010433          	add	s0,sp,zero
  10:	06c0006f          	j	7c <main>

00000014 <_Z6memsetPvhm>:
  14:	fd010113          	addi	sp,sp,-48
  18:	02812623          	sw	s0,44(sp)
  1c:	03010413          	addi	s0,sp,48
  20:	fca42e23          	sw	a0,-36(s0)
  24:	00058793          	mv	a5,a1
  28:	fcc42a23          	sw	a2,-44(s0)
  2c:	fcf40da3          	sb	a5,-37(s0)
  30:	fdc42783          	lw	a5,-36(s0)
  34:	fef42423          	sw	a5,-24(s0)
  38:	fe042623          	sw	zero,-20(s0)
  3c:	fec42703          	lw	a4,-20(s0)
  40:	fd442783          	lw	a5,-44(s0)
  44:	02f77463          	bgeu	a4,a5,6c <_Z6memsetPvhm+0x58>
  48:	fe842703          	lw	a4,-24(s0)
  4c:	fec42783          	lw	a5,-20(s0)
  50:	00f707b3          	add	a5,a4,a5
  54:	fdb44703          	lbu	a4,-37(s0)
  58:	00e78023          	sb	a4,0(a5)
  5c:	fec42783          	lw	a5,-20(s0)
  60:	00178793          	addi	a5,a5,1
  64:	fef42623          	sw	a5,-20(s0)
  68:	fd5ff06f          	j	3c <_Z6memsetPvhm+0x28>
  6c:	00000013          	nop
  70:	02c12403          	lw	s0,44(sp)
  74:	03010113          	addi	sp,sp,48
  78:	00008067          	ret

0000007c <main>:
  7c:	fd010113          	addi	sp,sp,-48
  80:	02112623          	sw	ra,44(sp)
  84:	02812423          	sw	s0,40(sp)
  88:	02912223          	sw	s1,36(sp)
  8c:	03010413          	addi	s0,sp,48
  90:	fe040793          	addi	a5,s0,-32
  94:	000025b7          	lui	a1,0x2
  98:	00078513          	mv	a0,a5
  9c:	254000ef          	jal	ra,2f0 <_ZN10VGADisplayC1Em>
  a0:	fdc40793          	addi	a5,s0,-36
  a4:	000055b7          	lui	a1,0x5
  a8:	00078513          	mv	a0,a5
  ac:	5fc000ef          	jal	ra,6a8 <_ZN8KeyboardC1Em>
  b0:	fe041723          	sh	zero,-18(s0)
  b4:	00100793          	li	a5,1
  b8:	fef41623          	sh	a5,-20(s0)
  bc:	fe041523          	sh	zero,-22(s0)
  c0:	fe041423          	sh	zero,-24(s0)
  c4:	fe040793          	addi	a5,s0,-32
  c8:	00000593          	li	a1,0
  cc:	00078513          	mv	a0,a5
  d0:	4f8000ef          	jal	ra,5c8 <_ZN10VGADisplay13setBackgroundEt>
  d4:	fe040793          	addi	a5,s0,-32
  d8:	00200593          	li	a1,2
  dc:	00078513          	mv	a0,a5
  e0:	4b4000ef          	jal	ra,594 <_ZN10VGADisplay13setForegroundEt>
  e4:	fe040793          	addi	a5,s0,-32
  e8:	05400693          	li	a3,84
  ec:	00000613          	li	a2,0
  f0:	00000593          	li	a1,0
  f4:	00078513          	mv	a0,a5
  f8:	23c000ef          	jal	ra,334 <_ZN10VGADisplay3setEtth>
  fc:	fe040793          	addi	a5,s0,-32
 100:	06500693          	li	a3,101
 104:	00000613          	li	a2,0
 108:	00100593          	li	a1,1
 10c:	00078513          	mv	a0,a5
 110:	224000ef          	jal	ra,334 <_ZN10VGADisplay3setEtth>
 114:	fe040793          	addi	a5,s0,-32
 118:	07300693          	li	a3,115
 11c:	00000613          	li	a2,0
 120:	00200593          	li	a1,2
 124:	00078513          	mv	a0,a5
 128:	20c000ef          	jal	ra,334 <_ZN10VGADisplay3setEtth>
 12c:	fe040793          	addi	a5,s0,-32
 130:	07400693          	li	a3,116
 134:	00000613          	li	a2,0
 138:	00300593          	li	a1,3
 13c:	00078513          	mv	a0,a5
 140:	1f4000ef          	jal	ra,334 <_ZN10VGADisplay3setEtth>
 144:	fe040793          	addi	a5,s0,-32
 148:	03a00693          	li	a3,58
 14c:	00000613          	li	a2,0
 150:	00400593          	li	a1,4
 154:	00078513          	mv	a0,a5
 158:	1dc000ef          	jal	ra,334 <_ZN10VGADisplay3setEtth>
 15c:	fe040793          	addi	a5,s0,-32
 160:	00700593          	li	a1,7
 164:	00078513          	mv	a0,a5
 168:	42c000ef          	jal	ra,594 <_ZN10VGADisplay13setForegroundEt>
 16c:	fe040793          	addi	a5,s0,-32
 170:	00000593          	li	a1,0
 174:	00078513          	mv	a0,a5
 178:	450000ef          	jal	ra,5c8 <_ZN10VGADisplay13setBackgroundEt>
 17c:	fdc40793          	addi	a5,s0,-36
 180:	00078513          	mv	a0,a5
 184:	554000ef          	jal	ra,6d8 <_ZN8Keyboard7hasCharEv>
 188:	00050793          	mv	a5,a0
 18c:	0017b793          	seqz	a5,a5
 190:	0ff7f793          	andi	a5,a5,255
 194:	00078463          	beqz	a5,19c <main+0x120>
 198:	fe5ff06f          	j	17c <main+0x100>
 19c:	fec45783          	lhu	a5,-20(s0)
 1a0:	00178713          	addi	a4,a5,1
 1a4:	fee41623          	sh	a4,-20(s0)
 1a8:	fee45583          	lhu	a1,-18(s0)
 1ac:	fe040513          	addi	a0,s0,-32
 1b0:	00001737          	lui	a4,0x1
 1b4:	88c70693          	addi	a3,a4,-1908 # 88c <STACK_SIZE+0x8c>
 1b8:	00078613          	mv	a2,a5
 1bc:	358000ef          	jal	ra,514 <_ZN10VGADisplay5printEttPKc>
 1c0:	fec45483          	lhu	s1,-20(s0)
 1c4:	00148793          	addi	a5,s1,1
 1c8:	fef41623          	sh	a5,-20(s0)
 1cc:	fdc40793          	addi	a5,s0,-36
 1d0:	00078513          	mv	a0,a5
 1d4:	5c4000ef          	jal	ra,798 <_ZN8Keyboard10getCounterEv>
 1d8:	00050793          	mv	a5,a0
 1dc:	00078693          	mv	a3,a5
 1e0:	fee45703          	lhu	a4,-18(s0)
 1e4:	fe040793          	addi	a5,s0,-32
 1e8:	00048613          	mv	a2,s1
 1ec:	00070593          	mv	a1,a4
 1f0:	00078513          	mv	a0,a5
 1f4:	1c8000ef          	jal	ra,3bc <_ZN10VGADisplay8printBinEtth>
 1f8:	fec45483          	lhu	s1,-20(s0)
 1fc:	00148793          	addi	a5,s1,1
 200:	fef41623          	sh	a5,-20(s0)
 204:	fdc40793          	addi	a5,s0,-36
 208:	00078513          	mv	a0,a5
 20c:	5bc000ef          	jal	ra,7c8 <_ZN8Keyboard13getShiftStateEv>
 210:	00050793          	mv	a5,a0
 214:	00078693          	mv	a3,a5
 218:	fee45703          	lhu	a4,-18(s0)
 21c:	fe040793          	addi	a5,s0,-32
 220:	00048613          	mv	a2,s1
 224:	00070593          	mv	a1,a4
 228:	00078513          	mv	a0,a5
 22c:	23c000ef          	jal	ra,468 <_ZN10VGADisplay8printBinEttt>
 230:	fec45483          	lhu	s1,-20(s0)
 234:	00148793          	addi	a5,s1,1
 238:	fef41623          	sh	a5,-20(s0)
 23c:	fdc40793          	addi	a5,s0,-36
 240:	00078513          	mv	a0,a5
 244:	4cc000ef          	jal	ra,710 <_ZN8Keyboard7getCharEv>
 248:	00050793          	mv	a5,a0
 24c:	00078693          	mv	a3,a5
 250:	fee45703          	lhu	a4,-18(s0)
 254:	fe040793          	addi	a5,s0,-32
 258:	00048613          	mv	a2,s1
 25c:	00070593          	mv	a1,a4
 260:	00078513          	mv	a0,a5
 264:	158000ef          	jal	ra,3bc <_ZN10VGADisplay8printBinEtth>
 268:	fea45783          	lhu	a5,-22(s0)
 26c:	00178793          	addi	a5,a5,1
 270:	fef41523          	sh	a5,-22(s0)
 274:	fec45783          	lhu	a5,-20(s0)
 278:	00178793          	addi	a5,a5,1
 27c:	fef41623          	sh	a5,-20(s0)
 280:	fea45703          	lhu	a4,-22(s0)
 284:	00500793          	li	a5,5
 288:	02f71463          	bne	a4,a5,2b0 <main+0x234>
 28c:	00100793          	li	a5,1
 290:	fef41623          	sh	a5,-20(s0)
 294:	fe845783          	lhu	a5,-24(s0)
 298:	00178793          	addi	a5,a5,1
 29c:	fef41423          	sh	a5,-24(s0)
 2a0:	fee45783          	lhu	a5,-18(s0)
 2a4:	01478793          	addi	a5,a5,20
 2a8:	fef41723          	sh	a5,-18(s0)
 2ac:	fe041523          	sh	zero,-22(s0)
 2b0:	fe845703          	lhu	a4,-24(s0)
 2b4:	00400793          	li	a5,4
 2b8:	ecf712e3          	bne	a4,a5,17c <main+0x100>
 2bc:	fe040793          	addi	a5,s0,-32
 2c0:	01e00713          	li	a4,30
 2c4:	05000693          	li	a3,80
 2c8:	00100613          	li	a2,1
 2cc:	00000593          	li	a1,0
 2d0:	00078513          	mv	a0,a5
 2d4:	328000ef          	jal	ra,5fc <_ZN10VGADisplay14clearRectangleEtttt>
 2d8:	00100793          	li	a5,1
 2dc:	fef41623          	sh	a5,-20(s0)
 2e0:	fe041723          	sh	zero,-18(s0)
 2e4:	fe041523          	sh	zero,-22(s0)
 2e8:	fe041423          	sh	zero,-24(s0)
 2ec:	e91ff06f          	j	17c <main+0x100>

000002f0 <_ZN10VGADisplayC1Em>:
 2f0:	fe010113          	addi	sp,sp,-32
 2f4:	00812e23          	sw	s0,28(sp)
 2f8:	02010413          	addi	s0,sp,32
 2fc:	fea42623          	sw	a0,-20(s0)
 300:	feb42423          	sw	a1,-24(s0)
 304:	fec42783          	lw	a5,-20(s0)
 308:	00700713          	li	a4,7
 30c:	00e79223          	sh	a4,4(a5)
 310:	fec42783          	lw	a5,-20(s0)
 314:	00079323          	sh	zero,6(a5)
 318:	fe842703          	lw	a4,-24(s0)
 31c:	fec42783          	lw	a5,-20(s0)
 320:	00e7a023          	sw	a4,0(a5)
 324:	00000013          	nop
 328:	01c12403          	lw	s0,28(sp)
 32c:	02010113          	addi	sp,sp,32
 330:	00008067          	ret

00000334 <_ZN10VGADisplay3setEtth>:
 334:	fe010113          	addi	sp,sp,-32
 338:	00812e23          	sw	s0,28(sp)
 33c:	02010413          	addi	s0,sp,32
 340:	fea42623          	sw	a0,-20(s0)
 344:	00058793          	mv	a5,a1
 348:	00068713          	mv	a4,a3
 34c:	fef41523          	sh	a5,-22(s0)
 350:	00060793          	mv	a5,a2
 354:	fef41423          	sh	a5,-24(s0)
 358:	00070793          	mv	a5,a4
 35c:	fef403a3          	sb	a5,-25(s0)
 360:	fec42783          	lw	a5,-20(s0)
 364:	0067d783          	lhu	a5,6(a5)
 368:	00b79713          	slli	a4,a5,0xb
 36c:	fec42783          	lw	a5,-20(s0)
 370:	0047d783          	lhu	a5,4(a5)
 374:	00879793          	slli	a5,a5,0x8
 378:	00f76733          	or	a4,a4,a5
 37c:	fe744783          	lbu	a5,-25(s0)
 380:	00f76633          	or	a2,a4,a5
 384:	fec42783          	lw	a5,-20(s0)
 388:	0007a703          	lw	a4,0(a5)
 38c:	fe845683          	lhu	a3,-24(s0)
 390:	fea45783          	lhu	a5,-22(s0)
 394:	00579793          	slli	a5,a5,0x5
 398:	00f6e7b3          	or	a5,a3,a5
 39c:	00060693          	mv	a3,a2
 3a0:	00279793          	slli	a5,a5,0x2
 3a4:	00f707b3          	add	a5,a4,a5
 3a8:	00d7a023          	sw	a3,0(a5)
 3ac:	00000013          	nop
 3b0:	01c12403          	lw	s0,28(sp)
 3b4:	02010113          	addi	sp,sp,32
 3b8:	00008067          	ret

000003bc <_ZN10VGADisplay8printBinEtth>:
 3bc:	fd010113          	addi	sp,sp,-48
 3c0:	02112623          	sw	ra,44(sp)
 3c4:	02812423          	sw	s0,40(sp)
 3c8:	03010413          	addi	s0,sp,48
 3cc:	fca42e23          	sw	a0,-36(s0)
 3d0:	00058793          	mv	a5,a1
 3d4:	00068713          	mv	a4,a3
 3d8:	fcf41d23          	sh	a5,-38(s0)
 3dc:	00060793          	mv	a5,a2
 3e0:	fcf41c23          	sh	a5,-40(s0)
 3e4:	00070793          	mv	a5,a4
 3e8:	fcf40ba3          	sb	a5,-41(s0)
 3ec:	fe042623          	sw	zero,-20(s0)
 3f0:	fec42703          	lw	a4,-20(s0)
 3f4:	00700793          	li	a5,7
 3f8:	04e7ee63          	bltu	a5,a4,454 <_ZN10VGADisplay8printBinEtth+0x98>
 3fc:	fda45783          	lhu	a5,-38(s0)
 400:	00178713          	addi	a4,a5,1
 404:	fce41d23          	sh	a4,-38(s0)
 408:	fd744683          	lbu	a3,-41(s0)
 40c:	00700613          	li	a2,7
 410:	fec42703          	lw	a4,-20(s0)
 414:	40e60733          	sub	a4,a2,a4
 418:	40e6d733          	sra	a4,a3,a4
 41c:	00177713          	andi	a4,a4,1
 420:	00070663          	beqz	a4,42c <_ZN10VGADisplay8printBinEtth+0x70>
 424:	03100713          	li	a4,49
 428:	0080006f          	j	430 <_ZN10VGADisplay8printBinEtth+0x74>
 42c:	03000713          	li	a4,48
 430:	fd845603          	lhu	a2,-40(s0)
 434:	00070693          	mv	a3,a4
 438:	00078593          	mv	a1,a5
 43c:	fdc42503          	lw	a0,-36(s0)
 440:	ef5ff0ef          	jal	ra,334 <_ZN10VGADisplay3setEtth>
 444:	fec42783          	lw	a5,-20(s0)
 448:	00178793          	addi	a5,a5,1
 44c:	fef42623          	sw	a5,-20(s0)
 450:	fa1ff06f          	j	3f0 <_ZN10VGADisplay8printBinEtth+0x34>
 454:	00000013          	nop
 458:	02c12083          	lw	ra,44(sp)
 45c:	02812403          	lw	s0,40(sp)
 460:	03010113          	addi	sp,sp,48
 464:	00008067          	ret

00000468 <_ZN10VGADisplay8printBinEttt>:
 468:	fd010113          	addi	sp,sp,-48
 46c:	02112623          	sw	ra,44(sp)
 470:	02812423          	sw	s0,40(sp)
 474:	03010413          	addi	s0,sp,48
 478:	fca42e23          	sw	a0,-36(s0)
 47c:	00058793          	mv	a5,a1
 480:	00068713          	mv	a4,a3
 484:	fcf41d23          	sh	a5,-38(s0)
 488:	00060793          	mv	a5,a2
 48c:	fcf41c23          	sh	a5,-40(s0)
 490:	00070793          	mv	a5,a4
 494:	fcf41b23          	sh	a5,-42(s0)
 498:	fe042623          	sw	zero,-20(s0)
 49c:	fec42703          	lw	a4,-20(s0)
 4a0:	00f00793          	li	a5,15
 4a4:	04e7ee63          	bltu	a5,a4,500 <_ZN10VGADisplay8printBinEttt+0x98>
 4a8:	fda45783          	lhu	a5,-38(s0)
 4ac:	00178713          	addi	a4,a5,1
 4b0:	fce41d23          	sh	a4,-38(s0)
 4b4:	fd645683          	lhu	a3,-42(s0)
 4b8:	00f00613          	li	a2,15
 4bc:	fec42703          	lw	a4,-20(s0)
 4c0:	40e60733          	sub	a4,a2,a4
 4c4:	40e6d733          	sra	a4,a3,a4
 4c8:	00177713          	andi	a4,a4,1
 4cc:	00070663          	beqz	a4,4d8 <_ZN10VGADisplay8printBinEttt+0x70>
 4d0:	03100713          	li	a4,49
 4d4:	0080006f          	j	4dc <_ZN10VGADisplay8printBinEttt+0x74>
 4d8:	03000713          	li	a4,48
 4dc:	fd845603          	lhu	a2,-40(s0)
 4e0:	00070693          	mv	a3,a4
 4e4:	00078593          	mv	a1,a5
 4e8:	fdc42503          	lw	a0,-36(s0)
 4ec:	e49ff0ef          	jal	ra,334 <_ZN10VGADisplay3setEtth>
 4f0:	fec42783          	lw	a5,-20(s0)
 4f4:	00178793          	addi	a5,a5,1
 4f8:	fef42623          	sw	a5,-20(s0)
 4fc:	fa1ff06f          	j	49c <_ZN10VGADisplay8printBinEttt+0x34>
 500:	00000013          	nop
 504:	02c12083          	lw	ra,44(sp)
 508:	02812403          	lw	s0,40(sp)
 50c:	03010113          	addi	sp,sp,48
 510:	00008067          	ret

00000514 <_ZN10VGADisplay5printEttPKc>:
 514:	fe010113          	addi	sp,sp,-32
 518:	00112e23          	sw	ra,28(sp)
 51c:	00812c23          	sw	s0,24(sp)
 520:	02010413          	addi	s0,sp,32
 524:	fea42623          	sw	a0,-20(s0)
 528:	00058793          	mv	a5,a1
 52c:	00060713          	mv	a4,a2
 530:	fed42223          	sw	a3,-28(s0)
 534:	fef41523          	sh	a5,-22(s0)
 538:	00070793          	mv	a5,a4
 53c:	fef41423          	sh	a5,-24(s0)
 540:	fe442783          	lw	a5,-28(s0)
 544:	0007c783          	lbu	a5,0(a5)
 548:	02078c63          	beqz	a5,580 <_ZN10VGADisplay5printEttPKc+0x6c>
 54c:	fea45703          	lhu	a4,-22(s0)
 550:	00170793          	addi	a5,a4,1
 554:	fef41523          	sh	a5,-22(s0)
 558:	fe442783          	lw	a5,-28(s0)
 55c:	00178693          	addi	a3,a5,1
 560:	fed42223          	sw	a3,-28(s0)
 564:	0007c683          	lbu	a3,0(a5)
 568:	fe845783          	lhu	a5,-24(s0)
 56c:	00078613          	mv	a2,a5
 570:	00070593          	mv	a1,a4
 574:	fec42503          	lw	a0,-20(s0)
 578:	dbdff0ef          	jal	ra,334 <_ZN10VGADisplay3setEtth>
 57c:	fc5ff06f          	j	540 <_ZN10VGADisplay5printEttPKc+0x2c>
 580:	00000013          	nop
 584:	01c12083          	lw	ra,28(sp)
 588:	01812403          	lw	s0,24(sp)
 58c:	02010113          	addi	sp,sp,32
 590:	00008067          	ret

00000594 <_ZN10VGADisplay13setForegroundEt>:
 594:	fe010113          	addi	sp,sp,-32
 598:	00812e23          	sw	s0,28(sp)
 59c:	02010413          	addi	s0,sp,32
 5a0:	fea42623          	sw	a0,-20(s0)
 5a4:	00058793          	mv	a5,a1
 5a8:	fef41523          	sh	a5,-22(s0)
 5ac:	fec42783          	lw	a5,-20(s0)
 5b0:	fea45703          	lhu	a4,-22(s0)
 5b4:	00e79223          	sh	a4,4(a5)
 5b8:	00000013          	nop
 5bc:	01c12403          	lw	s0,28(sp)
 5c0:	02010113          	addi	sp,sp,32
 5c4:	00008067          	ret

000005c8 <_ZN10VGADisplay13setBackgroundEt>:
 5c8:	fe010113          	addi	sp,sp,-32
 5cc:	00812e23          	sw	s0,28(sp)
 5d0:	02010413          	addi	s0,sp,32
 5d4:	fea42623          	sw	a0,-20(s0)
 5d8:	00058793          	mv	a5,a1
 5dc:	fef41523          	sh	a5,-22(s0)
 5e0:	fec42783          	lw	a5,-20(s0)
 5e4:	fea45703          	lhu	a4,-22(s0)
 5e8:	00e79323          	sh	a4,6(a5)
 5ec:	00000013          	nop
 5f0:	01c12403          	lw	s0,28(sp)
 5f4:	02010113          	addi	sp,sp,32
 5f8:	00008067          	ret

000005fc <_ZN10VGADisplay14clearRectangleEtttt>:
 5fc:	fd010113          	addi	sp,sp,-48
 600:	02112623          	sw	ra,44(sp)
 604:	02812423          	sw	s0,40(sp)
 608:	03010413          	addi	s0,sp,48
 60c:	fca42e23          	sw	a0,-36(s0)
 610:	00058793          	mv	a5,a1
 614:	fcf41d23          	sh	a5,-38(s0)
 618:	00060793          	mv	a5,a2
 61c:	fcf41c23          	sh	a5,-40(s0)
 620:	00068793          	mv	a5,a3
 624:	fcf41b23          	sh	a5,-42(s0)
 628:	00070793          	mv	a5,a4
 62c:	fcf41a23          	sh	a5,-44(s0)
 630:	fda45783          	lhu	a5,-38(s0)
 634:	fef41723          	sh	a5,-18(s0)
 638:	fee45703          	lhu	a4,-18(s0)
 63c:	fd645783          	lhu	a5,-42(s0)
 640:	04f77a63          	bgeu	a4,a5,694 <_ZN10VGADisplay14clearRectangleEtttt+0x98>
 644:	fd845783          	lhu	a5,-40(s0)
 648:	fef41623          	sh	a5,-20(s0)
 64c:	fec45703          	lhu	a4,-20(s0)
 650:	fd445783          	lhu	a5,-44(s0)
 654:	02f77863          	bgeu	a4,a5,684 <_ZN10VGADisplay14clearRectangleEtttt+0x88>
 658:	fec45703          	lhu	a4,-20(s0)
 65c:	fee45783          	lhu	a5,-18(s0)
 660:	00000693          	li	a3,0
 664:	00070613          	mv	a2,a4
 668:	00078593          	mv	a1,a5
 66c:	fdc42503          	lw	a0,-36(s0)
 670:	cc5ff0ef          	jal	ra,334 <_ZN10VGADisplay3setEtth>
 674:	fec45783          	lhu	a5,-20(s0)
 678:	00178793          	addi	a5,a5,1
 67c:	fef41623          	sh	a5,-20(s0)
 680:	fcdff06f          	j	64c <_ZN10VGADisplay14clearRectangleEtttt+0x50>
 684:	fee45783          	lhu	a5,-18(s0)
 688:	00178793          	addi	a5,a5,1
 68c:	fef41723          	sh	a5,-18(s0)
 690:	fa9ff06f          	j	638 <_ZN10VGADisplay14clearRectangleEtttt+0x3c>
 694:	00000013          	nop
 698:	02c12083          	lw	ra,44(sp)
 69c:	02812403          	lw	s0,40(sp)
 6a0:	03010113          	addi	sp,sp,48
 6a4:	00008067          	ret

000006a8 <_ZN8KeyboardC1Em>:
 6a8:	fe010113          	addi	sp,sp,-32
 6ac:	00812e23          	sw	s0,28(sp)
 6b0:	02010413          	addi	s0,sp,32
 6b4:	fea42623          	sw	a0,-20(s0)
 6b8:	feb42423          	sw	a1,-24(s0)
 6bc:	fe842703          	lw	a4,-24(s0)
 6c0:	fec42783          	lw	a5,-20(s0)
 6c4:	00e7a023          	sw	a4,0(a5)
 6c8:	00000013          	nop
 6cc:	01c12403          	lw	s0,28(sp)
 6d0:	02010113          	addi	sp,sp,32
 6d4:	00008067          	ret

000006d8 <_ZN8Keyboard7hasCharEv>:
 6d8:	fe010113          	addi	sp,sp,-32
 6dc:	00812e23          	sw	s0,28(sp)
 6e0:	02010413          	addi	s0,sp,32
 6e4:	fea42623          	sw	a0,-20(s0)
 6e8:	fec42783          	lw	a5,-20(s0)
 6ec:	0007a783          	lw	a5,0(a5)
 6f0:	0007c783          	lbu	a5,0(a5)
 6f4:	0ff7f793          	andi	a5,a5,255
 6f8:	0017f793          	andi	a5,a5,1
 6fc:	0ff7f793          	andi	a5,a5,255
 700:	00078513          	mv	a0,a5
 704:	01c12403          	lw	s0,28(sp)
 708:	02010113          	addi	sp,sp,32
 70c:	00008067          	ret

00000710 <_ZN8Keyboard7getCharEv>:
 710:	fd010113          	addi	sp,sp,-48
 714:	02112623          	sw	ra,44(sp)
 718:	02812423          	sw	s0,40(sp)
 71c:	03010413          	addi	s0,sp,48
 720:	fca42e23          	sw	a0,-36(s0)
 724:	fdc42783          	lw	a5,-36(s0)
 728:	0007a783          	lw	a5,0(a5)
 72c:	0017c783          	lbu	a5,1(a5)
 730:	fef407a3          	sb	a5,-17(s0)
 734:	fdc42503          	lw	a0,-36(s0)
 738:	01c000ef          	jal	ra,754 <_ZN8Keyboard10signalReadEv>
 73c:	fef44783          	lbu	a5,-17(s0)
 740:	00078513          	mv	a0,a5
 744:	02c12083          	lw	ra,44(sp)
 748:	02812403          	lw	s0,40(sp)
 74c:	03010113          	addi	sp,sp,48
 750:	00008067          	ret

00000754 <_ZN8Keyboard10signalReadEv>:
 754:	fe010113          	addi	sp,sp,-32
 758:	00812e23          	sw	s0,28(sp)
 75c:	02010413          	addi	s0,sp,32
 760:	fea42623          	sw	a0,-20(s0)
 764:	fec42783          	lw	a5,-20(s0)
 768:	0007a783          	lw	a5,0(a5)
 76c:	0007c783          	lbu	a5,0(a5)
 770:	0ff7f713          	andi	a4,a5,255
 774:	fec42783          	lw	a5,-20(s0)
 778:	0007a783          	lw	a5,0(a5)
 77c:	00276713          	ori	a4,a4,2
 780:	0ff77713          	andi	a4,a4,255
 784:	00e78023          	sb	a4,0(a5)
 788:	00000013          	nop
 78c:	01c12403          	lw	s0,28(sp)
 790:	02010113          	addi	sp,sp,32
 794:	00008067          	ret

00000798 <_ZN8Keyboard10getCounterEv>:
 798:	fe010113          	addi	sp,sp,-32
 79c:	00812e23          	sw	s0,28(sp)
 7a0:	02010413          	addi	s0,sp,32
 7a4:	fea42623          	sw	a0,-20(s0)
 7a8:	fec42783          	lw	a5,-20(s0)
 7ac:	0007a783          	lw	a5,0(a5)
 7b0:	0027c783          	lbu	a5,2(a5)
 7b4:	0ff7f793          	andi	a5,a5,255
 7b8:	00078513          	mv	a0,a5
 7bc:	01c12403          	lw	s0,28(sp)
 7c0:	02010113          	addi	sp,sp,32
 7c4:	00008067          	ret

000007c8 <_ZN8Keyboard13getShiftStateEv>:
 7c8:	fe010113          	addi	sp,sp,-32
 7cc:	00812e23          	sw	s0,28(sp)
 7d0:	02010413          	addi	s0,sp,32
 7d4:	fea42623          	sw	a0,-20(s0)
 7d8:	fec42783          	lw	a5,-20(s0)
 7dc:	0007a783          	lw	a5,0(a5)
 7e0:	0047d783          	lhu	a5,4(a5)
 7e4:	01079793          	slli	a5,a5,0x10
 7e8:	0107d793          	srli	a5,a5,0x10
 7ec:	00078513          	mv	a0,a5
 7f0:	01c12403          	lw	s0,28(sp)
 7f4:	02010113          	addi	sp,sp,32
 7f8:	00008067          	ret
